target datalayout = "e-m:e-p270:32:32-p271:32:32-p272:64:64-i64:64-i128:128-f80:128-n8:16:32:64-S128"
target triple = "x86_64-pc-linux-gnu"

; Function Attrs: nounwind uwtable
define void @ff_scale_vector_to_given_sum_of_squares(ptr noundef %0, ptr noundef %1, float noundef %2, i32 noundef %3) #0 {
  %5 = alloca ptr, align 8
  %6 = alloca ptr, align 8
  %7 = alloca float, align 4
  %8 = alloca i32, align 4
  %9 = alloca i32, align 4
  %10 = alloca float, align 4
  store ptr %0, ptr %5, align 8, !tbaa !27
  store ptr %1, ptr %6, align 8, !tbaa !27
  store float %2, ptr %7, align 4, !tbaa !24
  store i32 %3, ptr %8, align 4, !tbaa !11
  call void @llvm.lifetime.start.p0(i64 4, ptr %9) #6
  call void @llvm.lifetime.start.p0(i64 4, ptr %10) #6
  %11 = load ptr, ptr %6, align 8, !tbaa !27
  %12 = load ptr, ptr %6, align 8, !tbaa !27
  %13 = load i32, ptr %8, align 4, !tbaa !11
  %14 = call nsz float @ff_scalarproduct_float_c(ptr noundef %11, ptr noundef %12, i32 noundef %13)
  store float %14, ptr %10, align 4, !tbaa !24
  %15 = load float, ptr %10, align 4, !tbaa !24
  %16 = fcmp nsz une float %15, 0.000000e+00
  br i1 %16, label %17, label %24

17:                                               ; preds = %4
  %18 = load float, ptr %7, align 4, !tbaa !24
  %19 = load float, ptr %10, align 4, !tbaa !24
  %20 = fdiv nsz float %18, %19
  %21 = fpext nsz float %20 to double
  %22 = call nsz double @llvm.sqrt.f64(double %21)
  %23 = fptrunc nsz double %22 to float
  store float %23, ptr %10, align 4, !tbaa !24
  br label %24

24:                                               ; preds = %17, %4
  store i32 0, ptr %9, align 4, !tbaa !11
  br label %25

25:                                               ; preds = %41, %24
  %26 = load i32, ptr %9, align 4, !tbaa !11
  %27 = load i32, ptr %8, align 4, !tbaa !11
  %28 = icmp slt i32 %26, %27
  br i1 %28, label %29, label %44

29:                                               ; preds = %25
  %30 = load ptr, ptr %6, align 8, !tbaa !27
  %31 = load i32, ptr %9, align 4, !tbaa !11
  %32 = sext i32 %31 to i64
  %33 = getelementptr inbounds float, ptr %30, i64 %32
  %34 = load float, ptr %33, align 4, !tbaa !24
  %35 = load float, ptr %10, align 4, !tbaa !24
  %36 = fmul nsz float %34, %35
  %37 = load ptr, ptr %5, align 8, !tbaa !27
  %38 = load i32, ptr %9, align 4, !tbaa !11
  %39 = sext i32 %38 to i64
  %40 = getelementptr inbounds float, ptr %37, i64 %39
  store float %36, ptr %40, align 4, !tbaa !24
  br label %41

41:                                               ; preds = %29
  %42 = load i32, ptr %9, align 4, !tbaa !11
  %43 = add nsw i32 %42, 1
  store i32 %43, ptr %9, align 4, !tbaa !11
  br label %25, !llvm.loop !31

44:                                               ; preds = %25
  call void @llvm.lifetime.end.p0(i64 4, ptr %10) #6
  call void @llvm.lifetime.end.p0(i64 4, ptr %9) #6
  ret void
}