; Function Attrs: nounwind uwtable
define void @ff_scale_vector_to_given_sum_of_squares(ptr noundef writeonly captures(none) %0, ptr noundef %1, float noundef %2, i32 noundef %3) local_unnamed_addr #2 {
  %5 = tail call nsz float @ff_scalarproduct_float_c(ptr noundef %1, ptr noundef %1, i32 noundef %3) #7
  %6 = fcmp nsz une float %5, 0.000000e+00
  %7 = fdiv nsz float %2, %5
  %8 = tail call nsz float @llvm.sqrt.f32(float %7)
  %.0 = select nsz i1 %6, float %8, float %5
  %9 = icmp sgt i32 %3, 0
  br i1 %9, label %.lr.ph.preheader, label %._crit_edge

.lr.ph.preheader:                                 ; preds = %4
  %wide.trip.count = zext nneg i32 %3 to i64
  br label %.lr.ph

.lr.ph:                                           ; preds = %.lr.ph.preheader, %.lr.ph
  %indvars.iv = phi i64 [ 0, %.lr.ph.preheader ], [ %indvars.iv.next, %.lr.ph ]
  %10 = getelementptr inbounds nuw float, ptr %1, i64 %indvars.iv
  %11 = load float, ptr %10, align 4, !tbaa !17
  %12 = fmul nsz float %.0, %11
  %13 = getelementptr inbounds nuw float, ptr %0, i64 %indvars.iv
  store float %12, ptr %13, align 4, !tbaa !17
  %indvars.iv.next = add nuw nsw i64 %indvars.iv, 1
  %exitcond.not = icmp eq i64 %indvars.iv.next, %wide.trip.count
  br i1 %exitcond.not, label %._crit_edge, label %.lr.ph, !llvm.loop !22

._crit_edge:                                      ; preds = %.lr.ph, %4
  ret void
}